target datalayout = "e-m:e-p270:32:32-p271:32:32-p272:64:64-i64:64-i128:128-f80:128-n8:16:32:64-S128"
target triple = "x86_64-pc-linux-gnu"

%"class.base::TimeDelta" = type { i64 }

; Function Attrs: mustprogress nounwind uwtable
define linkonce_odr noundef i64 @_ZNSt14numeric_limitsIlE3maxEv() #1 comdat align 2 {
  ret i64 9223372036854775807
}

; Function Attrs: mustprogress nounwind uwtable
define linkonce_odr noundef zeroext i1 @_ZNK4base9TimeDelta6is_maxEv(ptr noundef nonnull align 8 dereferenceable(8) %0) #1 comdat align 2 {
  %2 = alloca ptr, align 8
  store ptr %0, ptr %2, align 8, !tbaa !3
  %3 = load ptr, ptr %2, align 8
  %4 = getelementptr inbounds nuw %"class.base::TimeDelta", ptr %3, i32 0, i32 0
  %5 = load i64, ptr %4, align 8, !tbaa !10
  %6 = call noundef i64 @_ZNSt14numeric_limitsIlE3maxEv() #12
  %7 = icmp eq i64 %5, %6
  ret i1 %7
}

; Function Attrs: mustprogress uwtable
define noundef i64 @_ZNK4base9TimeDelta23InMillisecondsRoundedUpEv(ptr noundef nonnull align 8 dereferenceable(8) %0) #0 align 2 {
  %2 = alloca i64, align 8
  %3 = alloca ptr, align 8
  store ptr %0, ptr %3, align 8, !tbaa !3
  %4 = load ptr, ptr %3, align 8
  %5 = call noundef zeroext i1 @_ZNK4base9TimeDelta6is_maxEv(ptr noundef nonnull align 8 dereferenceable(8) %4)
  br i1 %5, label %6, label %8

6:                                                ; preds = %1
  %7 = call noundef i64 @_ZNSt14numeric_limitsIlE3maxEv() #12
  store i64 %7, ptr %2, align 8
  br label %14

8:                                                ; preds = %1
  %9 = getelementptr inbounds nuw %"class.base::TimeDelta", ptr %4, i32 0, i32 0
  %10 = load i64, ptr %9, align 8, !tbaa !10
  %11 = add nsw i64 %10, 1000
  %12 = sub nsw i64 %11, 1
  %13 = sdiv i64 %12, 1000
  store i64 %13, ptr %2, align 8
  br label %14

14:                                               ; preds = %8, %6
  %15 = load i64, ptr %2, align 8
  ret i64 %15
}