; Function Attrs: mustprogress nofree norecurse nosync nounwind willreturn memory(argmem: read) uwtable
define noundef range(i64 -9223372036854774, -9223372036854775808) i64 @_ZNK4base9TimeDelta23InMillisecondsRoundedUpEv(ptr noundef nonnull readonly align 8 captures(none) dereferenceable(8) %0) local_unnamed_addr #1 align 2 {
  %2 = load i64, ptr %0, align 8, !tbaa !3
  %3 = icmp eq i64 %2, 9223372036854775807
  br i1 %3, label %7, label %4

4:                                                ; preds = %1
  %5 = add nsw i64 %2, 999
  %6 = sdiv i64 %5, 1000
  br label %7

7:                                                ; preds = %1, %4
  %.0 = phi i64 [ %6, %4 ], [ 9223372036854775807, %1 ]
  ret i64 %.0
}